; Function Attrs: mustprogress nofree norecurse nosync nounwind willreturn memory(argmem: write) uwtable
define hidden void @nghttp2_frame_settings_init(ptr noundef writeonly captures(none) initializes((0, 15), (16, 32)) %0, i8 noundef zeroext %1, ptr noundef %2, i64 noundef %3) local_unnamed_addr #2 {
  %5 = mul i64 %3, 6
  store i64 %5, ptr %0, align 8, !tbaa !3
  %6 = getelementptr inbounds nuw i8, ptr %0, i64 12
  store i8 4, ptr %6, align 4, !tbaa !9
  %7 = getelementptr inbounds nuw i8, ptr %0, i64 13
  store i8 %1, ptr %7, align 1, !tbaa !11
  %8 = getelementptr inbounds nuw i8, ptr %0, i64 8
  store i32 0, ptr %8, align 8, !tbaa !12
  %9 = getelementptr inbounds nuw i8, ptr %0, i64 14
  store i8 0, ptr %9, align 2, !tbaa !13
  %10 = getelementptr inbounds nuw i8, ptr %0, i64 16
  store i64 %3, ptr %10, align 8, !tbaa !25
  %11 = getelementptr inbounds nuw i8, ptr %0, i64 24
  store ptr %2, ptr %11, align 8, !tbaa !27
  ret void
}